target datalayout = "e-m:e-p270:32:32-p271:32:32-p272:64:64-i64:64-i128:128-f80:128-n8:16:32:64-S128"
target triple = "x86_64-pc-linux-gnu"

%struct.lua_TValue = type { %union.Value, [1 x i32], i32 }
%union.Value = type { ptr }

; Function Attrs: mustprogress uwtable
define internal noundef i32 @_ZL14luauF_rawequalP9lua_StateP10lua_TValueS2_iS2_i(ptr noundef %0, ptr noundef %1, ptr noundef %2, i32 noundef %3, ptr noundef %4, i32 noundef %5) #3 {
  %7 = alloca i32, align 4
  %8 = alloca ptr, align 8
  %9 = alloca ptr, align 8
  %10 = alloca ptr, align 8
  %11 = alloca i32, align 4
  %12 = alloca ptr, align 8
  %13 = alloca i32, align 4
  %14 = alloca ptr, align 8
  store ptr %0, ptr %8, align 8, !tbaa !4
  store ptr %1, ptr %9, align 8, !tbaa !9
  store ptr %2, ptr %10, align 8, !tbaa !9
  store i32 %3, ptr %11, align 4, !tbaa !11
  store ptr %4, ptr %12, align 8, !tbaa !9
  store i32 %5, ptr %13, align 4, !tbaa !11
  %15 = load i32, ptr %13, align 4, !tbaa !11
  %16 = icmp sge i32 %15, 2
  br i1 %16, label %17, label %29

17:                                               ; preds = %6
  %18 = load i32, ptr %11, align 4, !tbaa !11
  %19 = icmp sle i32 %18, 1
  br i1 %19, label %20, label %29

20:                                               ; preds = %17
  call void @llvm.lifetime.start.p0(i64 8, ptr %14) #17
  %21 = load ptr, ptr %9, align 8, !tbaa !9
  store ptr %21, ptr %14, align 8, !tbaa !9
  %22 = load ptr, ptr %10, align 8, !tbaa !9
  %23 = load ptr, ptr %12, align 8, !tbaa !9
  %24 = call noundef i32 @_Z16luaO_rawequalObjPK10lua_TValueS1_(ptr noundef %22, ptr noundef %23)
  %25 = load ptr, ptr %14, align 8, !tbaa !9
  %26 = getelementptr inbounds nuw %struct.lua_TValue, ptr %25, i32 0, i32 0
  store i32 %24, ptr %26, align 8, !tbaa !15
  %27 = load ptr, ptr %14, align 8, !tbaa !9
  %28 = getelementptr inbounds nuw %struct.lua_TValue, ptr %27, i32 0, i32 2
  store i32 1, ptr %28, align 4, !tbaa !13
  call void @llvm.lifetime.end.p0(i64 8, ptr %14) #17
  store i32 1, ptr %7, align 4
  br label %30

29:                                               ; preds = %17, %6
  store i32 -1, ptr %7, align 4
  br label %30

30:                                               ; preds = %29, %20
  %31 = load i32, ptr %7, align 4
  ret i32 %31
}